target datalayout = "e-m:e-p270:32:32-p271:32:32-p272:64:64-i64:64-i128:128-f80:128-n8:16:32:64-S128"
target triple = "x86_64-pc-linux-gnu"

%struct.Zio = type { i64, ptr, ptr, ptr, ptr }

@.str.3 = private unnamed_addr constant [2 x i8] c"?\00", align 1

; Function Attrs: nounwind uwtable
define dso_local i32 @lua_load(ptr noundef %0, ptr noundef %1, ptr noundef %2, ptr noundef %3) #0 {
  %5 = alloca ptr, align 8
  %6 = alloca ptr, align 8
  %7 = alloca ptr, align 8
  %8 = alloca ptr, align 8
  %9 = alloca %struct.Zio, align 8
  %10 = alloca i32, align 4
  store ptr %0, ptr %5, align 8, !tbaa !4
  store ptr %1, ptr %6, align 8, !tbaa !34
  store ptr %2, ptr %7, align 8, !tbaa !34
  store ptr %3, ptr %8, align 8, !tbaa !52
  call void @llvm.lifetime.start.p0(i64 40, ptr %9) #6
  call void @llvm.lifetime.start.p0(i64 4, ptr %10) #6
  %11 = load ptr, ptr %8, align 8, !tbaa !52
  %12 = icmp ne ptr %11, null
  br i1 %12, label %14, label %13

13:                                               ; preds = %4
  store ptr @.str.3, ptr %8, align 8, !tbaa !52
  br label %14

14:                                               ; preds = %13, %4
  %15 = load ptr, ptr %5, align 8, !tbaa !4
  %16 = load ptr, ptr %6, align 8, !tbaa !34
  %17 = load ptr, ptr %7, align 8, !tbaa !34
  call void @luaZ_init(ptr noundef %15, ptr noundef %9, ptr noundef %16, ptr noundef %17)
  %18 = load ptr, ptr %5, align 8, !tbaa !4
  %19 = load ptr, ptr %8, align 8, !tbaa !52
  %20 = call i32 @luaD_protectedparser(ptr noundef %18, ptr noundef %9, ptr noundef %19)
  store i32 %20, ptr %10, align 4, !tbaa !25
  %21 = load i32, ptr %10, align 4, !tbaa !25
  call void @llvm.lifetime.end.p0(i64 4, ptr %10) #6
  call void @llvm.lifetime.end.p0(i64 40, ptr %9) #6
  ret i32 %21
}