; Function Attrs: nounwind uwtable
define dso_local i32 @lua_load(ptr noundef %0, ptr noundef %1, ptr noundef %2, ptr noundef %3) local_unnamed_addr #2 {
  %5 = alloca %struct.Zio, align 8
  call void @llvm.lifetime.start.p0(i64 40, ptr nonnull %5) #14
  %.not = icmp eq ptr %3, null
  %spec.store.select = select i1 %.not, ptr @.str.3, ptr %3
  call void @luaZ_init(ptr noundef %0, ptr noundef nonnull %5, ptr noundef %1, ptr noundef %2) #14
  %6 = call i32 @luaD_protectedparser(ptr noundef %0, ptr noundef nonnull %5, ptr noundef nonnull %spec.store.select) #14
  call void @llvm.lifetime.end.p0(i64 40, ptr nonnull %5) #14
  ret i32 %6
}